; Function Attrs: mustprogress nounwind uwtable
define void @_ZN5boost4urls3url7cleanupERNS0_8url_base4op_tE(ptr nocapture nonnull readnone align 8 %0, ptr nocapture noundef nonnull readonly align 8 dereferenceable(32) %1) unnamed_addr #1 align 2 {
  %3 = getelementptr inbounds nuw i8, ptr %1, i64 24
  %4 = load ptr, ptr %3, align 8, !tbaa !32
  %.not = icmp eq ptr %4, null
  br i1 %.not, label %5, label %_ZN5boost4urls3url10deallocateEPc.exit

_ZN5boost4urls3url10deallocateEPc.exit:           ; preds = %2
  tail call void @_ZdaPv(ptr noundef nonnull %4) #21
  br label %5

5:                                                ; preds = %_ZN5boost4urls3url10deallocateEPc.exit, %2
  ret void
}